target datalayout = "e-m:e-p270:32:32-p271:32:32-p272:64:64-i64:64-i128:128-f80:128-n8:16:32:64-S128"
target triple = "x86_64-pc-linux-gnu"

%struct.WOLFSSL_BUFFER_INFO = type { ptr, i32 }
%struct.WOLFSSL = type <{ ptr, ptr, ptr, ptr, [48 x i8], [48 x i8], ptr, ptr, ptr, ptr, ptr, ptr, ptr, ptr, ptr, ptr, ptr, ptr, ptr, i32, [4 x i8], %struct.WOLFSSL_CIPHER, ptr, %struct.Ciphers, %struct.Ciphers, [8 x i8], %struct.Buffers, ptr, ptr, %struct.WOLFSSL_ALERT_HISTORY, %struct.WOLFSSL_ALERT, i32, i32, i32, i32, i32, i32, i32, i16, [2 x i8], i32, i8, %struct.RecordLayerHeader, %struct.MsgsReceived, %struct.ProtocolVersion, %struct.ProtocolVersion, %struct.CipherSpecs, [2 x i8], %struct.Keys, %struct.Options, ptr, i8, i8, i16, [10 x i16], i8, i8, i16, i16, [38 x i8], i32, i32, [4 x i8], ptr, i8, i8, [6 x i8], ptr, ptr, i16, i8, i8, i32, i8, [3 x i8], i32, %struct.OneTimeAuth, ptr }>
%struct.WOLFSSL_CIPHER = type { i8, i8, ptr }
%struct.Ciphers = type { ptr, ptr, ptr, ptr, i8, i8 }
%struct.Buffers = type { %struct.bufferStatic, %struct.bufferStatic, %struct.WOLFSSL_BUFFER_INFO, %struct.WOLFSSL_BUFFER_INFO, %struct.WOLFSSL_BUFFER_INFO, %struct.WOLFSSL_BUFFER_INFO, i32, i32, i8, i8, i8, i8, %struct.WOLFSSL_BUFFER_INFO, %struct.WOLFSSL_BUFFER_INFO, %struct.WOLFSSL_BUFFER_INFO, %struct.WOLFSSL_BUFFER_INFO, ptr, ptr, ptr, i8, i8, i32, i32, ptr, i32, [1 x ptr] }
%struct.bufferStatic = type { [5 x i8], ptr, i32, i32, i32, i8, i8 }
%struct.WOLFSSL_ALERT_HISTORY = type { %struct.WOLFSSL_ALERT, %struct.WOLFSSL_ALERT }
%struct.WOLFSSL_ALERT = type { i32, i32 }
%struct.RecordLayerHeader = type { i8, i8, i8, [2 x i8] }
%struct.MsgsReceived = type { i32 }
%struct.ProtocolVersion = type { i8, i8 }
%struct.CipherSpecs = type { i16, i16, i16, i16, i8, i8, i8, i8, i8, i8, i8, i8 }
%struct.Keys = type { [64 x i8], [64 x i8], [32 x i8], [32 x i8], [16 x i8], [16 x i8], [8 x i8], [12 x i8], [12 x i8], i32, i32, i32, i32, i32, i32, i8, i8, i8, i8 }
%struct.Options = type { i64, i64, i8, i8, i8, i8, i8, i8, i8, i8, i8, i8, i8, i8, i8, i8, i8, i8, i8, i8, i8, i8, i8, i16, i16, i16, i16, i16, i8 }
%struct.OneTimeAuth = type { ptr, i8 }

; Function Attrs: nounwind uwtable
define i32 @wolfSSL_shutdown(ptr noundef %0) #0 {
  %2 = alloca i32, align 4
  %3 = alloca ptr, align 8
  %4 = alloca i32, align 4
  %5 = alloca i32, align 4
  store ptr %0, ptr %3, align 8, !tbaa !61
  call void @llvm.lifetime.start.p0(i64 4, ptr %4) #9
  store i32 -1, ptr %4, align 4, !tbaa !7
  br label %6

6:                                                ; preds = %1
  br label %7

7:                                                ; preds = %6
  br label %8

8:                                                ; preds = %7
  %9 = load ptr, ptr %3, align 8, !tbaa !61
  %10 = icmp eq ptr %9, null
  br i1 %10, label %11, label %12

11:                                               ; preds = %8
  store i32 -1, ptr %2, align 4
  store i32 1, ptr %5, align 4
  br label %140

12:                                               ; preds = %8
  %13 = load ptr, ptr %3, align 8, !tbaa !61
  %14 = getelementptr inbounds nuw %struct.WOLFSSL, ptr %13, i32 0, i32 49
  %15 = getelementptr inbounds nuw %struct.Options, ptr %14, i32 0, i32 1
  %16 = load i64, ptr %15, align 8
  %17 = lshr i64 %16, 35
  %18 = and i64 %17, 1
  %19 = trunc i64 %18 to i16
  %20 = icmp ne i16 %19, 0
  br i1 %20, label %21, label %25

21:                                               ; preds = %12
  br label %22

22:                                               ; preds = %21
  br label %23

23:                                               ; preds = %22
  br label %24

24:                                               ; preds = %23
  store i32 1, ptr %4, align 4, !tbaa !7
  br label %135

25:                                               ; preds = %12
  %26 = load ptr, ptr %3, align 8, !tbaa !61
  %27 = getelementptr inbounds nuw %struct.WOLFSSL, ptr %26, i32 0, i32 49
  %28 = getelementptr inbounds nuw %struct.Options, ptr %27, i32 0, i32 1
  %29 = load i64, ptr %28, align 8
  %30 = lshr i64 %29, 19
  %31 = and i64 %30, 1
  %32 = trunc i64 %31 to i16
  %33 = icmp ne i16 %32, 0
  br i1 %33, label %87, label %34

34:                                               ; preds = %25
  %35 = load ptr, ptr %3, align 8, !tbaa !61
  %36 = getelementptr inbounds nuw %struct.WOLFSSL, ptr %35, i32 0, i32 49
  %37 = getelementptr inbounds nuw %struct.Options, ptr %36, i32 0, i32 1
  %38 = load i64, ptr %37, align 8
  %39 = lshr i64 %38, 18
  %40 = and i64 %39, 1
  %41 = trunc i64 %40 to i16
  %42 = icmp ne i16 %41, 0
  br i1 %42, label %87, label %43

43:                                               ; preds = %34
  %44 = load ptr, ptr %3, align 8, !tbaa !61
  %45 = getelementptr inbounds nuw %struct.WOLFSSL, ptr %44, i32 0, i32 49
  %46 = getelementptr inbounds nuw %struct.Options, ptr %45, i32 0, i32 1
  %47 = load i64, ptr %46, align 8
  %48 = lshr i64 %47, 21
  %49 = and i64 %48, 1
  %50 = trunc i64 %49 to i16
  %51 = icmp ne i16 %50, 0
  br i1 %51, label %87, label %52

52:                                               ; preds = %43
  %53 = load ptr, ptr %3, align 8, !tbaa !61
  %54 = call i32 @SendAlert(ptr noundef %53, i32 noundef 1, i32 noundef 0)
  %55 = load ptr, ptr %3, align 8, !tbaa !61
  %56 = getelementptr inbounds nuw %struct.WOLFSSL, ptr %55, i32 0, i32 31
  store i32 %54, ptr %56, align 8, !tbaa !152
  %57 = load ptr, ptr %3, align 8, !tbaa !61
  %58 = getelementptr inbounds nuw %struct.WOLFSSL, ptr %57, i32 0, i32 31
  %59 = load i32, ptr %58, align 8, !tbaa !152
  %60 = icmp slt i32 %59, 0
  br i1 %60, label %61, label %62

61:                                               ; preds = %52
  store i32 -1, ptr %2, align 4
  store i32 1, ptr %5, align 4
  br label %140

62:                                               ; preds = %52
  %63 = load ptr, ptr %3, align 8, !tbaa !61
  %64 = getelementptr inbounds nuw %struct.WOLFSSL, ptr %63, i32 0, i32 49
  %65 = getelementptr inbounds nuw %struct.Options, ptr %64, i32 0, i32 1
  %66 = load i64, ptr %65, align 8
  %67 = and i64 %66, -2097153
  %68 = or i64 %67, 2097152
  store i64 %68, ptr %65, align 8
  %69 = load ptr, ptr %3, align 8, !tbaa !61
  %70 = getelementptr inbounds nuw %struct.WOLFSSL, ptr %69, i32 0, i32 49
  %71 = getelementptr inbounds nuw %struct.Options, ptr %70, i32 0, i32 1
  %72 = load i64, ptr %71, align 8
  %73 = lshr i64 %72, 20
  %74 = and i64 %73, 1
  %75 = trunc i64 %74 to i16
  %76 = icmp ne i16 %75, 0
  br i1 %76, label %77, label %81

77:                                               ; preds = %62
  store i32 1, ptr %4, align 4, !tbaa !7
  %78 = load ptr, ptr %3, align 8, !tbaa !61
  %79 = getelementptr inbounds nuw %struct.WOLFSSL, ptr %78, i32 0, i32 49
  %80 = getelementptr inbounds nuw %struct.Options, ptr %79, i32 0, i32 4
  store i8 1, ptr %80, align 2, !tbaa !192
  br label %86

81:                                               ; preds = %62
  store i32 2, ptr %4, align 4, !tbaa !7
  br label %82

82:                                               ; preds = %81
  br label %83

83:                                               ; preds = %82
  br label %84

84:                                               ; preds = %83
  %85 = load i32, ptr %4, align 4, !tbaa !7
  store i32 %85, ptr %2, align 4
  store i32 1, ptr %5, align 4
  br label %140

86:                                               ; preds = %77
  br label %87

87:                                               ; preds = %86, %43, %34, %25
  %88 = load ptr, ptr %3, align 8, !tbaa !61
  %89 = getelementptr inbounds nuw %struct.WOLFSSL, ptr %88, i32 0, i32 49
  %90 = getelementptr inbounds nuw %struct.Options, ptr %89, i32 0, i32 1
  %91 = load i64, ptr %90, align 8
  %92 = lshr i64 %91, 21
  %93 = and i64 %92, 1
  %94 = trunc i64 %93 to i16
  %95 = zext i16 %94 to i32
  %96 = icmp ne i32 %95, 0
  br i1 %96, label %97, label %134

97:                                               ; preds = %87
  %98 = load ptr, ptr %3, align 8, !tbaa !61
  %99 = getelementptr inbounds nuw %struct.WOLFSSL, ptr %98, i32 0, i32 49
  %100 = getelementptr inbounds nuw %struct.Options, ptr %99, i32 0, i32 1
  %101 = load i64, ptr %100, align 8
  %102 = lshr i64 %101, 20
  %103 = and i64 %102, 1
  %104 = trunc i64 %103 to i16
  %105 = icmp ne i16 %104, 0
  br i1 %105, label %134, label %106

106:                                              ; preds = %97
  %107 = load ptr, ptr %3, align 8, !tbaa !61
  %108 = call i32 @ProcessReply(ptr noundef %107)
  store i32 %108, ptr %4, align 4, !tbaa !7
  %109 = load i32, ptr %4, align 4, !tbaa !7
  %110 = icmp eq i32 %109, -343
  br i1 %110, label %114, label %111

111:                                              ; preds = %106
  %112 = load i32, ptr %4, align 4, !tbaa !7
  %113 = icmp eq i32 %112, -308
  br i1 %113, label %114, label %120

114:                                              ; preds = %111, %106
  %115 = load ptr, ptr %3, align 8, !tbaa !61
  %116 = getelementptr inbounds nuw %struct.WOLFSSL, ptr %115, i32 0, i32 49
  %117 = getelementptr inbounds nuw %struct.Options, ptr %116, i32 0, i32 4
  store i8 1, ptr %117, align 2, !tbaa !192
  %118 = load ptr, ptr %3, align 8, !tbaa !61
  %119 = getelementptr inbounds nuw %struct.WOLFSSL, ptr %118, i32 0, i32 31
  store i32 0, ptr %119, align 8, !tbaa !152
  store i32 1, ptr %4, align 4, !tbaa !7
  br label %133

120:                                              ; preds = %111
  %121 = load i32, ptr %4, align 4, !tbaa !7
  %122 = icmp eq i32 %121, -125
  br i1 %122, label %123, label %124

123:                                              ; preds = %120
  store i32 -1, ptr %4, align 4, !tbaa !7
  br label %132

124:                                              ; preds = %120
  %125 = load ptr, ptr %3, align 8, !tbaa !61
  %126 = getelementptr inbounds nuw %struct.WOLFSSL, ptr %125, i32 0, i32 31
  %127 = load i32, ptr %126, align 8, !tbaa !152
  %128 = icmp eq i32 %127, 0
  br i1 %128, label %129, label %130

129:                                              ; preds = %124
  store i32 2, ptr %4, align 4, !tbaa !7
  br label %131

130:                                              ; preds = %124
  store i32 -1, ptr %4, align 4, !tbaa !7
  br label %131

131:                                              ; preds = %130, %129
  br label %132

132:                                              ; preds = %131, %123
  br label %133

133:                                              ; preds = %132, %114
  br label %134

134:                                              ; preds = %133, %97, %87
  br label %135

135:                                              ; preds = %134, %24
  br label %136

136:                                              ; preds = %135
  br label %137

137:                                              ; preds = %136
  br label %138

138:                                              ; preds = %137
  %139 = load i32, ptr %4, align 4, !tbaa !7
  store i32 %139, ptr %2, align 4
  store i32 1, ptr %5, align 4
  br label %140

140:                                              ; preds = %138, %84, %61, %11
  call void @llvm.lifetime.end.p0(i64 4, ptr %4) #9
  %141 = load i32, ptr %2, align 4
  ret i32 %141
}

; Function Attrs: nounwind uwtable
define i32 @wolfSSL_SendUserCanceled(ptr noundef %0) #0 {
  %2 = alloca ptr, align 8
  %3 = alloca i32, align 4
  store ptr %0, ptr %2, align 8, !tbaa !61
  call void @llvm.lifetime.start.p0(i64 4, ptr %3) #9
  store i32 0, ptr %3, align 4, !tbaa !7
  br label %4

4:                                                ; preds = %1
  br label %5

5:                                                ; preds = %4
  br label %6

6:                                                ; preds = %5
  %7 = load ptr, ptr %2, align 8, !tbaa !61
  %8 = icmp ne ptr %7, null
  br i1 %8, label %9, label %23

9:                                                ; preds = %6
  %10 = load ptr, ptr %2, align 8, !tbaa !61
  %11 = call i32 @SendAlert(ptr noundef %10, i32 noundef 1, i32 noundef 90)
  %12 = load ptr, ptr %2, align 8, !tbaa !61
  %13 = getelementptr inbounds nuw %struct.WOLFSSL, ptr %12, i32 0, i32 31
  store i32 %11, ptr %13, align 8, !tbaa !152
  %14 = load ptr, ptr %2, align 8, !tbaa !61
  %15 = getelementptr inbounds nuw %struct.WOLFSSL, ptr %14, i32 0, i32 31
  %16 = load i32, ptr %15, align 8, !tbaa !152
  %17 = icmp slt i32 %16, 0
  br i1 %17, label %18, label %19

18:                                               ; preds = %9
  br label %22

19:                                               ; preds = %9
  %20 = load ptr, ptr %2, align 8, !tbaa !61
  %21 = call i32 @wolfSSL_shutdown(ptr noundef %20)
  store i32 %21, ptr %3, align 4, !tbaa !7
  br label %22

22:                                               ; preds = %19, %18
  br label %23

23:                                               ; preds = %22, %6
  br label %24

24:                                               ; preds = %23
  br label %25

25:                                               ; preds = %24
  br label %26

26:                                               ; preds = %25
  %27 = load i32, ptr %3, align 4, !tbaa !7
  call void @llvm.lifetime.end.p0(i64 4, ptr %3) #9
  ret i32 %27
}