; Function Attrs: nounwind uwtable
define range(i32 -1, 3) i32 @wolfSSL_SendUserCanceled(ptr noundef %0) local_unnamed_addr #0 {
  %.not = icmp eq ptr %0, null
  br i1 %.not, label %wolfSSL_shutdown.exit, label %2

2:                                                ; preds = %1
  %3 = tail call i32 @SendAlert(ptr noundef nonnull %0, i32 noundef 1, i32 noundef 90) #22
  %4 = getelementptr inbounds nuw i8, ptr %0, i64 664
  store i32 %3, ptr %4, align 8, !tbaa !130
  %5 = icmp slt i32 %3, 0
  br i1 %5, label %wolfSSL_shutdown.exit, label %6

6:                                                ; preds = %2
  %7 = getelementptr inbounds nuw i8, ptr %0, i64 1024
  %8 = load i64, ptr %7, align 8
  %9 = and i64 %8, 34359738368
  %.not.i = icmp eq i64 %9, 0
  br i1 %.not.i, label %10, label %wolfSSL_shutdown.exit

10:                                               ; preds = %6
  %11 = and i64 %8, 2883584
  %or.cond33.i = icmp eq i64 %11, 0
  br i1 %or.cond33.i, label %12, label %21

12:                                               ; preds = %10
  %13 = tail call i32 @SendAlert(ptr noundef nonnull %0, i32 noundef 1, i32 noundef 0) #22
  store i32 %13, ptr %4, align 8, !tbaa !130
  %14 = icmp slt i32 %13, 0
  br i1 %14, label %wolfSSL_shutdown.exit, label %15

15:                                               ; preds = %12
  %16 = load i64, ptr %7, align 8
  %17 = or i64 %16, 2097152
  store i64 %17, ptr %7, align 8
  %18 = and i64 %16, 1048576
  %.not29.i = icmp eq i64 %18, 0
  br i1 %.not29.i, label %wolfSSL_shutdown.exit, label %19

19:                                               ; preds = %15
  %20 = getelementptr inbounds nuw i8, ptr %0, i64 1034
  store i8 1, ptr %20, align 2, !tbaa !171
  br label %21

21:                                               ; preds = %19, %10
  %22 = phi i64 [ %8, %10 ], [ %17, %19 ]
  %.0.i = phi i32 [ -1, %10 ], [ 1, %19 ]
  %23 = and i64 %22, 3145728
  %or.cond34.i = icmp eq i64 %23, 2097152
  br i1 %or.cond34.i, label %24, label %wolfSSL_shutdown.exit

24:                                               ; preds = %21
  %25 = tail call i32 @ProcessReply(ptr noundef nonnull %0) #22
  switch i32 %25, label %28 [
    i32 -308, label %26
    i32 -343, label %26
    i32 -125, label %wolfSSL_shutdown.exit
  ]

26:                                               ; preds = %24, %24
  %27 = getelementptr inbounds nuw i8, ptr %0, i64 1034
  store i8 1, ptr %27, align 2, !tbaa !171
  store i32 0, ptr %4, align 8, !tbaa !130
  br label %wolfSSL_shutdown.exit

28:                                               ; preds = %24
  %29 = load i32, ptr %4, align 8, !tbaa !130
  %30 = icmp eq i32 %29, 0
  %..i = select i1 %30, i32 2, i32 -1
  br label %wolfSSL_shutdown.exit

wolfSSL_shutdown.exit:                            ; preds = %28, %26, %24, %21, %15, %12, %6, %1, %2
  %.0 = phi i32 [ 0, %2 ], [ 0, %1 ], [ -1, %12 ], [ 2, %15 ], [ 1, %26 ], [ %.0.i, %21 ], [ 1, %6 ], [ -1, %24 ], [ %..i, %28 ]
  ret i32 %.0
}